; Function Attrs: mustprogress uwtable
define void @_ZN4YAML6Stream14AdvanceCurrentEv(ptr noundef nonnull align 8 dereferenceable(136) %0) local_unnamed_addr #0 align 2 personality ptr @__gxx_personality_v0 {
  %2 = getelementptr inbounds nuw i8, ptr %0, i64 80
  %3 = getelementptr inbounds nuw i8, ptr %0, i64 48
  %4 = load ptr, ptr %2, align 8, !tbaa !46
  %5 = load ptr, ptr %3, align 8, !tbaa !46
  %6 = icmp eq ptr %4, %5
  %.phi.trans.insert = getelementptr inbounds nuw i8, ptr %0, i64 64
  %.pre1 = load ptr, ptr %.phi.trans.insert, align 8, !tbaa !48
  br i1 %6, label %._crit_edge, label %7

7:                                                ; preds = %1
  %8 = getelementptr inbounds i8, ptr %.pre1, i64 -1
  %.not.i = icmp eq ptr %5, %8
  br i1 %.not.i, label %11, label %9

9:                                                ; preds = %7
  %10 = getelementptr inbounds nuw i8, ptr %5, i64 1
  br label %_ZNSt5dequeIcSaIcEE9pop_frontEv.exit

11:                                               ; preds = %7
  %12 = getelementptr inbounds nuw i8, ptr %0, i64 56
  %13 = load ptr, ptr %12, align 8, !tbaa !72
  tail call void @_ZdlPv(ptr noundef %13) #17
  %14 = getelementptr inbounds nuw i8, ptr %0, i64 72
  %15 = load ptr, ptr %14, align 8, !tbaa !50
  %16 = getelementptr inbounds nuw i8, ptr %15, i64 8
  store ptr %16, ptr %14, align 8, !tbaa !45
  %17 = load ptr, ptr %16, align 8, !tbaa !52
  store ptr %17, ptr %12, align 8, !tbaa !47
  %18 = getelementptr inbounds nuw i8, ptr %17, i64 512
  store ptr %18, ptr %.phi.trans.insert, align 8, !tbaa !48
  %.pre.pre = load ptr, ptr %2, align 8, !tbaa !46
  br label %_ZNSt5dequeIcSaIcEE9pop_frontEv.exit

_ZNSt5dequeIcSaIcEE9pop_frontEv.exit:             ; preds = %9, %11
  %.pre = phi ptr [ %4, %9 ], [ %.pre.pre, %11 ]
  %19 = phi ptr [ %.pre1, %9 ], [ %18, %11 ]
  %storemerge.i = phi ptr [ %10, %9 ], [ %17, %11 ]
  store ptr %storemerge.i, ptr %3, align 8, !tbaa !64
  %20 = getelementptr inbounds nuw i8, ptr %0, i64 8
  %21 = load i32, ptr %20, align 8, !tbaa !65
  %22 = add nsw i32 %21, 1
  store i32 %22, ptr %20, align 8, !tbaa !65
  br label %._crit_edge

._crit_edge:                                      ; preds = %1, %_ZNSt5dequeIcSaIcEE9pop_frontEv.exit
  %23 = phi ptr [ %storemerge.i, %_ZNSt5dequeIcSaIcEE9pop_frontEv.exit ], [ %4, %1 ]
  %24 = phi ptr [ %19, %_ZNSt5dequeIcSaIcEE9pop_frontEv.exit ], [ %.pre1, %1 ]
  %25 = phi ptr [ %.pre, %_ZNSt5dequeIcSaIcEE9pop_frontEv.exit ], [ %4, %1 ]
  %26 = getelementptr inbounds nuw i8, ptr %0, i64 104
  %27 = load ptr, ptr %26, align 8, !tbaa !45
  %28 = getelementptr inbounds nuw i8, ptr %0, i64 72
  %29 = load ptr, ptr %28, align 8, !tbaa !45
  %30 = ptrtoint ptr %27 to i64
  %31 = ptrtoint ptr %29 to i64
  %32 = sub i64 %30, %31
  %33 = ashr exact i64 %32, 3
  %34 = icmp ne ptr %27, null
  %.neg.i.i.i = sext i1 %34 to i64
  %35 = add nsw i64 %33, %.neg.i.i.i
  %36 = shl nsw i64 %35, 9
  %37 = getelementptr inbounds nuw i8, ptr %0, i64 88
  %38 = load ptr, ptr %37, align 8, !tbaa !47
  %39 = ptrtoint ptr %25 to i64
  %40 = ptrtoint ptr %38 to i64
  %41 = ptrtoint ptr %24 to i64
  %42 = ptrtoint ptr %23 to i64
  %43 = sub i64 %39, %40
  %44 = add i64 %43, %41
  %45 = add i64 %44, %36
  %.not = icmp eq i64 %45, %42
  br i1 %.not, label %46, label %_ZNK4YAML6Stream11ReadAheadToEm.exit

46:                                               ; preds = %._crit_edge
  %47 = tail call noundef zeroext i1 @_ZNK4YAML6Stream12_ReadAheadToEm(ptr noundef nonnull align 8 dereferenceable(136) %0, i64 noundef 0)
  br label %_ZNK4YAML6Stream11ReadAheadToEm.exit

_ZNK4YAML6Stream11ReadAheadToEm.exit:             ; preds = %._crit_edge, %46
  ret void
}